; Function Attrs: nounwind uwtable
define dso_local range(i32 -1, 1) i32 @sapi_flush() local_unnamed_addr #0 {
  %1 = load ptr, ptr getelementptr inbounds nuw (i8, ptr @sapi_module, i64 56), align 8, !tbaa !150
  %.not = icmp eq ptr %1, null
  br i1 %.not, label %4, label %2

2:                                                ; preds = %0
  %3 = load ptr, ptr @sapi_globals, align 8, !tbaa !108
  tail call void %1(ptr noundef %3) #19
  br label %4

4:                                                ; preds = %0, %2
  %.0 = phi i32 [ 0, %2 ], [ -1, %0 ]
  ret i32 %.0
}